------- FILE bomber.asm LEVEL 1 PASS 2
      1  10000 ????						; Final Project code stub - paused in lecture 55
      2  10000 ????
      3  10000 ????				       processor	6502
      4  10000 ????
      5  10000 ????						;;;;;;;;;;;;;;;;;;;;;;;;;;;;;;;;;;;;;;;;;;;;;;;;;;;;;;;;;;;;;;;;;;;;;;;
      6  10000 ????						;;  Include required files VCS register memory mapping and macros
      7  10000 ????						;;;;;;;;;;;;;;;;;;;;;;;;;;;;;;;;;;;;;;;;;;;;;;;;;;;;;;;;;;;;;;;;;;;;;;;
      8  10000 ????
------- FILE ../UTILS/vcs.h LEVEL 2 PASS 2
      0  10000 ????				       include	"../UTILS/vcs.h"
      1  10000 ????						; VCS.H
      2  10000 ????						; Version 1.05, 13/November/2003
      3  10000 ????
      4  10000 ????		00 69	    VERSION_VCS =	105
      5  10000 ????
      6  10000 ????						; THIS IS A PRELIMINARY RELEASE OF *THE* "STANDARD" VCS.H
      7  10000 ????						; THIS FILE IS EXPLICITLY SUPPORTED AS A DASM-PREFERRED COMPANION FILE
      8  10000 ????						; PLEASE DO *NOT* REDISTRIBUTE THIS FILE!
      9  10000 ????						;
     10  10000 ????						; This file defines hardware registers and memory mapping for the
     11  10000 ????						; Atari 2600. It is distributed as a companion machine-specific support package
     12  10000 ????						; for the DASM compiler. Updates to this file, DASM, and associated tools are
     13  10000 ????						; available at at http://www.atari2600.org/dasm
     14  10000 ????						;
     15  10000 ????						; Many thanks to the original author(s) of this file, and to everyone who has
     16  10000 ????						; contributed to understanding the Atari 2600.  If you take issue with the
     17  10000 ????						; contents, or naming of registers, please write to me (atari2600@taswegian.com)
     18  10000 ????						; with your views.  Please contribute, if you think you can improve this
     19  10000 ????						; file!
     20  10000 ????						;
     21  10000 ????						; Latest Revisions...
     22  10000 ????						; 1.05  13/NOV/2003	  - Correction to 1.04 - now functions as requested by MR.
     23  10000 ????						;			  - Added VERSION_VCS equate (which will reflect 100x version #)
     24  10000 ????						;			    This will allow conditional code to verify VCS.H being
     25  10000 ????						;			    used for code assembly.
     26  10000 ????						; 1.04  12/NOV/2003	 Added TIA_BASE_WRITE_ADDRESS and TIA_BASE_READ_ADDRESS for
     27  10000 ????						;			 convenient disassembly/reassembly compatibility for hardware
     28  10000 ????						;			 mirrored reading/writing differences.	This is more a 
     29  10000 ????						;			 readability issue, and binary compatibility with disassembled
     30  10000 ????						;			 and reassembled sources.  Per Manuel Rotschkar's suggestion.
     31  10000 ????						; 1.03  12/MAY/2003	 Added SEG segment at end of file to fix old-code compatibility
     32  10000 ????						;			 which was broken by the use of segments in this file, as
     33  10000 ????						;			 reported by Manuel Polik on [stella] 11/MAY/2003
     34  10000 ????						; 1.02  22/MAR/2003	 Added TIMINT($285)
     35  10000 ????						; 1.01 	     Constant offset added to allow use for 3F-style bankswitching
     36  10000 ????						;	      - define TIA_BASE_ADDRESS as $40 for Tigervision carts, otherwise
     37  10000 ????						;		it is safe to leave it undefined, and the base address will
     38  10000 ????						;		be set to 0.  Thanks to Eckhard Stolberg for the suggestion.
     39  10000 ????						;			    Note, may use -DLABEL=EXPRESSION to define TIA_BASE_ADDRESS
     40  10000 ????						;			  - register definitions are now generated through assignment
     41  10000 ????						;			    in uninitialised segments.	This allows a changeable base
     42  10000 ????						;			    address architecture.
     43  10000 ????						; 1.0 22/MAR/2003   Initial release
     44  10000 ????						;-------------------------------------------------------------------------------
     45  10000 ????						; TIA_BASE_ADDRESS
     46  10000 ????						; The TIA_BASE_ADDRESS defines the base address of access to TIA registers.
     47  10000 ????						; Normally 0, the base address should (externally, before including this file)
     48  10000 ????						; be set to $40 when creating 3F-bankswitched (and other?) cartridges.
     49  10000 ????						; The reason is that this bankswitching scheme treats any access to locations
     50  10000 ????						; < $40 as a bankswitch.
     51  10000 ????			   -	       IFNCONST	TIA_BASE_ADDRESS
     52  10000 ????			   -TIA_BASE_ADDRESS =	0
     53  10000 ????				       ENDIF
     54  10000 ????						; Note: The address may be defined on the command-line using the -D switch, eg:
     55  10000 ????						; dasm.exe code.asm -DTIA_BASE_ADDRESS=$40 -f3 -v5 -ocode.bin
     56  10000 ????						; *OR* by declaring the label before including this file, eg:
     57  10000 ????						; TIA_BASE_ADDRESS = $40
     58  10000 ????						;   include "vcs.h"
     59  10000 ????						; Alternate read/write address capability - allows for some disassembly compatibility
     60  10000 ????						; usage ; to allow reassembly to binary perfect copies).  This is essentially catering
     61  10000 ????						; for the mirrored ROM hardware registers.
     62  10000 ????						; Usage: As per above, define the TIA_BASE_READ_ADDRESS and/or TIA_BASE_WRITE_ADDRESS
     63  10000 ????						; using the -D command-line switch, as required.  If the addresses are not defined, 
     64  10000 ????						; they defaut to the TIA_BASE_ADDRESS.
     65  10000 ????			   -	       IFNCONST	TIA_BASE_READ_ADDRESS
     66  10000 ????			   -TIA_BASE_READ_ADDRESS =	TIA_BASE_ADDRESS
     67  10000 ????				       ENDIF
     68  10000 ????			   -	       IFNCONST	TIA_BASE_WRITE_ADDRESS
     69  10000 ????			   -TIA_BASE_WRITE_ADDRESS =	TIA_BASE_ADDRESS
     70  10000 ????				       ENDIF
     71  10000 ????						;-------------------------------------------------------------------------------
     72 U002d ????				      SEG.U	TIA_REGISTERS_WRITE
     73 U0000					      ORG	TIA_BASE_WRITE_ADDRESS
     74 U0000							; DO NOT CHANGE THE RELATIVE ORDERING OF REGISTERS!
     75 U0000
     76 U0000		       00	   VSYNC      ds	1	; $00	 0000 00x0   Vertical Sync Set-Clear
     77 U0001		       00	   VBLANK     ds	1	; $01	 xx00 00x0   Vertical Blank Set-Clear
     78 U0002		       00	   WSYNC      ds	1	; $02	 ---- ----   Wait for Horizontal Blank
     79 U0003		       00	   RSYNC      ds	1	; $03	 ---- ----   Reset Horizontal Sync Counter
     80 U0004		       00	   NUSIZ0     ds	1	; $04	 00xx 0xxx   Number-Size player/missle 0
     81 U0005		       00	   NUSIZ1     ds	1	; $05	 00xx 0xxx   Number-Size player/missle 1
     82 U0006		       00	   COLUP0     ds	1	; $06	 xxxx xxx0   Color-Luminance Player 0
     83 U0007		       00	   COLUP1     ds	1	; $07	 xxxx xxx0   Color-Luminance Player 1
     84 U0008		       00	   COLUPF     ds	1	; $08	 xxxx xxx0   Color-Luminance Playfield
     85 U0009		       00	   COLUBK     ds	1	; $09	 xxxx xxx0   Color-Luminance Background
     86 U000a		       00	   CTRLPF     ds	1	; $0A	 00xx 0xxx   Control Playfield, Ball, Collisions
     87 U000b		       00	   REFP0      ds	1	; $0B	 0000 x000   Reflection Player 0
     88 U000c		       00	   REFP1      ds	1	; $0C	 0000 x000   Reflection Player 1
     89 U000d		       00	   PF0	      ds	1	; $0D	 xxxx 0000   Playfield Register Byte 0
     90 U000e		       00	   PF1	      ds	1	; $0E	 xxxx xxxx   Playfield Register Byte 1
     91 U000f		       00	   PF2	      ds	1	; $0F	 xxxx xxxx   Playfield Register Byte 2
     92 U0010		       00	   RESP0      ds	1	; $10	 ---- ----   Reset Player 0
     93 U0011		       00	   RESP1      ds	1	; $11	 ---- ----   Reset Player 1
     94 U0012		       00	   RESM0      ds	1	; $12	 ---- ----   Reset Missle 0
     95 U0013		       00	   RESM1      ds	1	; $13	 ---- ----   Reset Missle 1
     96 U0014		       00	   RESBL      ds	1	; $14	 ---- ----   Reset Ball
     97 U0015		       00	   AUDC0      ds	1	; $15	 0000 xxxx   Audio Control 0
     98 U0016		       00	   AUDC1      ds	1	; $16	 0000 xxxx   Audio Control 1
     99 U0017		       00	   AUDF0      ds	1	; $17	 000x xxxx   Audio Frequency 0
    100 U0018		       00	   AUDF1      ds	1	; $18	 000x xxxx   Audio Frequency 1
    101 U0019		       00	   AUDV0      ds	1	; $19	 0000 xxxx   Audio Volume 0
    102 U001a		       00	   AUDV1      ds	1	; $1A	 0000 xxxx   Audio Volume 1
    103 U001b		       00	   GRP0       ds	1	; $1B	 xxxx xxxx   Graphics Register Player 0
    104 U001c		       00	   GRP1       ds	1	; $1C	 xxxx xxxx   Graphics Register Player 1
    105 U001d		       00	   ENAM0      ds	1	; $1D	 0000 00x0   Graphics Enable Missle 0
    106 U001e		       00	   ENAM1      ds	1	; $1E	 0000 00x0   Graphics Enable Missle 1
    107 U001f		       00	   ENABL      ds	1	; $1F	 0000 00x0   Graphics Enable Ball
    108 U0020		       00	   HMP0       ds	1	; $20	 xxxx 0000   Horizontal Motion Player 0
    109 U0021		       00	   HMP1       ds	1	; $21	 xxxx 0000   Horizontal Motion Player 1
    110 U0022		       00	   HMM0       ds	1	; $22	 xxxx 0000   Horizontal Motion Missle 0
    111 U0023		       00	   HMM1       ds	1	; $23	 xxxx 0000   Horizontal Motion Missle 1
    112 U0024		       00	   HMBL       ds	1	; $24	 xxxx 0000   Horizontal Motion Ball
    113 U0025		       00	   VDELP0     ds	1	; $25	 0000 000x   Vertical Delay Player 0
    114 U0026		       00	   VDELP1     ds	1	; $26	 0000 000x   Vertical Delay Player 1
    115 U0027		       00	   VDELBL     ds	1	; $27	 0000 000x   Vertical Delay Ball
    116 U0028		       00	   RESMP0     ds	1	; $28	 0000 00x0   Reset Missle 0 to Player 0
    117 U0029		       00	   RESMP1     ds	1	; $29	 0000 00x0   Reset Missle 1 to Player 1
    118 U002a		       00	   HMOVE      ds	1	; $2A	 ---- ----   Apply Horizontal Motion
    119 U002b		       00	   HMCLR      ds	1	; $2B	 ---- ----   Clear Horizontal Move Registers
    120 U002c		       00	   CXCLR      ds	1	; $2C	 ---- ----   Clear Collision Latches
    121 U002d
    122 U002d							;-------------------------------------------------------------------------------
    123 U000e ????				      SEG.U	TIA_REGISTERS_READ
    124 U0000					      ORG	TIA_BASE_READ_ADDRESS
    125 U0000							;		       bit 7   bit 6
    126 U0000		       00	   CXM0P      ds	1	; $00	     xx00 0000	     Read Collision  M0-P1   M0-P0
    127 U0001		       00	   CXM1P      ds	1	; $01	     xx00 0000			     M1-P0   M1-P1
    128 U0002		       00	   CXP0FB     ds	1	; $02	     xx00 0000			     P0-PF   P0-BL
    129 U0003		       00	   CXP1FB     ds	1	; $03	     xx00 0000			     P1-PF   P1-BL
    130 U0004		       00	   CXM0FB     ds	1	; $04	     xx00 0000			     M0-PF   M0-BL
    131 U0005		       00	   CXM1FB     ds	1	; $05	     xx00 0000			     M1-PF   M1-BL
    132 U0006		       00	   CXBLPF     ds	1	; $06	     x000 0000			     BL-PF   -----
    133 U0007		       00	   CXPPMM     ds	1	; $07	     xx00 0000			     P0-P1   M0-M1
    134 U0008		       00	   INPT0      ds	1	; $08	     x000 0000	     Read Pot Port 0
    135 U0009		       00	   INPT1      ds	1	; $09	     x000 0000	     Read Pot Port 1
    136 U000a		       00	   INPT2      ds	1	; $0A	     x000 0000	     Read Pot Port 2
    137 U000b		       00	   INPT3      ds	1	; $0B	     x000 0000	     Read Pot Port 3
    138 U000c		       00	   INPT4      ds	1	; $0C	 x000 0000	 Read Input (Trigger) 0
    139 U000d		       00	   INPT5      ds	1	; $0D	 x000 0000	 Read Input (Trigger) 1
    140 U000e							;-------------------------------------------------------------------------------
    141 U0298 ????				      SEG.U	RIOT
    142 U0280					      ORG	$280
    143 U0280
    144 U0280							; RIOT MEMORY MAP
    145 U0280		       00	   SWCHA      ds	1	; $280      Port A data register for joysticks:
    146 U0281							;     Bits 4-7 for player 1.  Bits 0-3 for player 2.
    147 U0281		       00	   SWACNT     ds	1	; $281      Port A data direction register (DDR)
    148 U0282		       00	   SWCHB      ds	1	; $282    Port B data (console switches)
    149 U0283		       00	   SWBCNT     ds	1	; $283      Port B DDR
    150 U0284		       00	   INTIM      ds	1	; $284    Timer output
    151 U0285		       00	   TIMINT     ds	1	; $285
    152 U0286							; Unused/undefined registers ($285-$294)
    153 U0286		       00		      ds	1	; $286
    154 U0287		       00		      ds	1	; $287
    155 U0288		       00		      ds	1	; $288
    156 U0289		       00		      ds	1	; $289
    157 U028a		       00		      ds	1	; $28A
    158 U028b		       00		      ds	1	; $28B
    159 U028c		       00		      ds	1	; $28C
    160 U028d		       00		      ds	1	; $28D
    161 U028e		       00		      ds	1	; $28E
    162 U028f		       00		      ds	1	; $28F
    163 U0290		       00		      ds	1	; $290
    164 U0291		       00		      ds	1	; $291
    165 U0292		       00		      ds	1	; $292
    166 U0293		       00		      ds	1	; $293
    167 U0294		       00	   TIM1T      ds	1	; $294    set 1 clock interval
    168 U0295		       00	   TIM8T      ds	1	; $295      set 8 clock interval
    169 U0296		       00	   TIM64T     ds	1	; $296      set 64 clock interval
    170 U0297		       00	   T1024T     ds	1	; $297      set 1024 clock interval
    171 U0298							;-------------------------------------------------------------------------------
    172 U0298							; The following required for back-compatibility with code which does not use
    173 U0298							; segments.
    174  0000 ????				      SEG
    175  0000 ????						; EOF
------- FILE bomber.asm
------- FILE ../UTILS/macro.h LEVEL 2 PASS 2
      0  0000 ????				      include	"../UTILS/macro.h"
      1  0000 ????						; MACRO.H
      2  0000 ????						; Version 1.06, 3/SEPTEMBER/2004
      3  0000 ????
      4  0000 ????	       00 6a	   VERSION_MACRO =	106
      5  0000 ????
      6  0000 ????						;
      7  0000 ????						; THIS FILE IS EXPLICITLY SUPPORTED AS A DASM-PREFERRED COMPANION FILE
      8  0000 ????						; PLEASE DO *NOT* REDISTRIBUTE MODIFIED VERSIONS OF THIS FILE!
      9  0000 ????						;
     10  0000 ????						; This file defines DASM macros useful for development for the Atari 2600.
     11  0000 ????						; It is distributed as a companion machine-specific support package
     12  0000 ????						; for the DASM compiler. Updates to this file, DASM, and associated tools are
     13  0000 ????						; available at at http://www.atari2600.org/dasm
     14  0000 ????						;
     15  0000 ????						; Many thanks to the people who have contributed.  If you take issue with the
     16  0000 ????						; contents, or would like to add something, please write to me
     17  0000 ????						; (atari2600@taswegian.com) with your contribution.
     18  0000 ????						;
     19  0000 ????						; Latest Revisions...
     20  0000 ????						;
     21  0000 ????						; 1.06  03/SEP/2004	 - nice revision of VERTICAL_BLANK (Edwin Blink)
     22  0000 ????						; 1.05  14/NOV/2003	 - Added VERSION_MACRO equate (which will reflect 100x version #)
     23  0000 ????						;			   This will allow conditional code to verify MACRO.H being
     24  0000 ????						;			   used for code assembly.
     25  0000 ????						; 1.04  13/NOV/2003	 - SET_POINTER macro added (16-bit address load)
     26  0000 ????						;
     27  0000 ????						; 1.03  23/JUN/2003	 - CLEAN_START macro added - clears TIA, RAM, registers
     28  0000 ????						;
     29  0000 ????						; 1.02  14/JUN/2003	 - VERTICAL_SYNC macro added
     30  0000 ????						;			   (standardised macro for vertical synch code)
     31  0000 ????						; 1.01  22/MAR/2003	 - SLEEP macro added. 
     32  0000 ????						;			 - NO_ILLEGAL_OPCODES switch implemented
     33  0000 ????						; 1.0 22/MAR/2003   Initial release
     34  0000 ????
     35  0000 ????						; Note: These macros use illegal opcodes.  To disable illegal opcode usage, 
     36  0000 ????						;   define the symbol NO_ILLEGAL_OPCODES (-DNO_ILLEGAL_OPCODES=1 on command-line).
     37  0000 ????						;   If you do not allow illegal opcode usage, you must include this file 
     38  0000 ????						;   *after* including VCS.H (as the non-illegal opcodes access hardware
     39  0000 ????						;   registers and require them to be defined first).
     40  0000 ????
     41  0000 ????						; Available macros...
     42  0000 ????						;   SLEEP n		 - sleep for n cycles
     43  0000 ????						;   VERTICAL_SYNC	 - correct 3 scanline vertical synch code
     44  0000 ????						;   CLEAN_START	 - set machine to known state on startup
     45  0000 ????						;   SET_POINTER	 - load a 16-bit absolute to a 16-bit variable
     46  0000 ????
     47  0000 ????						;-------------------------------------------------------------------------------
     48  0000 ????						; SLEEP duration
     49  0000 ????						; Original author: Thomas Jentzsch
     50  0000 ????						; Inserts code which takes the specified number of cycles to execute.	This is
     51  0000 ????						; useful for code where precise timing is required.
     52  0000 ????						; ILLEGAL-OPCODE VERSION DOES NOT AFFECT FLAGS OR REGISTERS.
     53  0000 ????						; LEGAL OPCODE VERSION MAY AFFECT FLAGS
     54  0000 ????						; Uses illegal opcode (DASM 2.20.01 onwards).
     55  0000 ????
     56  0000 ????				      MAC	sleep
     57  0000 ????			   .CYCLES    SET	{1}
     58  0000 ????
     59  0000 ????				      IF	.CYCLES < 2
     60  0000 ????				      ECHO	"MACRO ERROR: 'SLEEP': Duration must be > 1"
     61  0000 ????				      ERR
     62  0000 ????				      ENDIF
     63  0000 ????
     64  0000 ????				      IF	.CYCLES & 1
     65  0000 ????				      IFNCONST	NO_ILLEGAL_OPCODES
     66  0000 ????				      nop	0
     67  0000 ????				      ELSE
     68  0000 ????				      bit	VSYNC
     69  0000 ????				      ENDIF
     70  0000 ????			   .CYCLES    SET	.CYCLES - 3
     71  0000 ????				      ENDIF
     72  0000 ????
     73  0000 ????				      REPEAT	.CYCLES / 2
     74  0000 ????				      nop
     75  0000 ????				      REPEND
     76  0000 ????				      ENDM		;usage: SLEEP n (n>1)
     77  0000 ????
     78  0000 ????						;-------------------------------------------------------------------------------
     79  0000 ????						; VERTICAL_SYNC
     80  0000 ????						; revised version by Edwin Blink -- saves bytes!
     81  0000 ????						; Inserts the code required for a proper 3 scanline vertical sync sequence
     82  0000 ????						; Note: Alters the accumulator
     83  0000 ????
     84  0000 ????						; OUT: A = 0
     85  0000 ????
     86  0000 ????				      MAC	vertical_sync
     87  0000 ????				      lda	#%1110	; each '1' bits generate a VSYNC ON line (bits 1..3)
     88  0000 ????			   .VSLP1     sta	WSYNC	; 1st '0' bit resets Vsync, 2nd '0' bit exit loop
     89  0000 ????				      sta	VSYNC
     90  0000 ????				      lsr
     91  0000 ????				      bne	.VSLP1	; branch until VYSNC has been reset
     92  0000 ????				      ENDM
     93  0000 ????
     94  0000 ????						;-------------------------------------------------------------------------------
     95  0000 ????						; CLEAN_START
     96  0000 ????						; Original author: Andrew Davie
     97  0000 ????						; Standardised start-up code, clears stack, all TIA registers and RAM to 0
     98  0000 ????						; Sets stack pointer to $FF, and all registers to 0
     99  0000 ????						; Sets decimal mode off, sets interrupt flag (kind of un-necessary)
    100  0000 ????						; Use as very first section of code on boot (ie: at reset)
    101  0000 ????						; Code written to minimise total ROM usage - uses weird 6502 knowledge :)
    102  0000 ????
    103  0000 ????				      MAC	clean_start
    104  0000 ????				      sei
    105  0000 ????				      cld
    106  0000 ????
    107  0000 ????				      ldx	#0
    108  0000 ????				      txa
    109  0000 ????				      tay
    110  0000 ????			   .CLEAR_STACK dex
    111  0000 ????				      txs
    112  0000 ????				      pha
    113  0000 ????				      bne	.CLEAR_STACK	; SP=$FF, X = A = Y = 0
    114  0000 ????
    115  0000 ????				      ENDM
    116  0000 ????
    117  0000 ????						;-------------------------------------------------------
    118  0000 ????						; SET_POINTER
    119  0000 ????						; Original author: Manuel Rotschkar
    120  0000 ????						;
    121  0000 ????						; Sets a 2 byte RAM pointer to an absolute address.
    122  0000 ????						;
    123  0000 ????						; Usage: SET_POINTER pointer, address
    124  0000 ????						; Example: SET_POINTER SpritePTR, SpriteData
    125  0000 ????						;
    126  0000 ????						; Note: Alters the accumulator, NZ flags
    127  0000 ????						; IN 1: 2 byte RAM location reserved for pointer
    128  0000 ????						; IN 2: absolute address
    129  0000 ????
    130  0000 ????				      MAC	set_pointer
    131  0000 ????			   .POINTER   SET	{1}
    132  0000 ????			   .ADDRESS   SET	{2}
    133  0000 ????
    134  0000 ????				      LDA	#<.ADDRESS	; Get Lowbyte of Address
    135  0000 ????				      STA	.POINTER	; Store in pointer
    136  0000 ????				      LDA	#>.ADDRESS	; Get Hibyte of Address
    137  0000 ????				      STA	.POINTER+1	; Store in pointer+1
    138  0000 ????
    139  0000 ????				      ENDM
    140  0000 ????
    141  0000 ????						;-------------------------------------------------------
    142  0000 ????						; BOUNDARY byte#
    143  0000 ????						; Original author: Denis Debro (borrowed from Bob Smith / Thomas)
    144  0000 ????						;
    145  0000 ????						; Push data to a certain position inside a page and keep count of how
    146  0000 ????						; many free bytes the programmer will have.
    147  0000 ????						;
    148  0000 ????						; eg: BOUNDARY 5    ; position at byte #5 in page
    149  0000 ????
    150  0000 ????			   .FREE_BYTES SET	0
    151  0000 ????				      MAC	boundary
    152  0000 ????				      REPEAT	256
    153  0000 ????				      IF	<. % {1} = 0
    154  0000 ????				      MEXIT
    155  0000 ????				      ELSE
    156  0000 ????			   .FREE_BYTES SET	.FREE_BYTES + 1
    157  0000 ????				      .byte	$00
    158  0000 ????				      ENDIF
    159  0000 ????				      REPEND
    160  0000 ????				      ENDM
    161  0000 ????
    162  0000 ????
    163  0000 ????						; EOF
------- FILE bomber.asm
     11  0000 ????
     12  0000 ????						;;;;;;;;;;;;;;;;;;;;;;;;;;;;;;;;;;;;;;;;;;;;;;;;;;;;;;;;;;;;;;;;;;;;;;;
     13  0000 ????						;;  Declare the variable starting from memory adderss $80
     14  0000 ????						;;;;;;;;;;;;;;;;;;;;;;;;;;;;;;;;;;;;;;;;;;;;;;;;;;;;;;;;;;;;;;;;;;;;;;;
     15  0000 ????
     16 U008d ????				      seg.u	Variables
     17 U0080					      org	$80
     18 U0080
     19 U0080		       00	   JetXPos    byte.b		; player0 x-position
     20 U0081		       00	   JetYPos    byte.b		; player0 y-position
     21 U0082		       00	   BomberXPos byte.b		; player1 x-position (enemy x)
     22 U0083		       00	   BomberYPos byte.b		; player1 y-position (enemy y)
     23 U0084		       00 00	   P0SpritePtr word.w		; pointer to player0 sprite lookup table
     24 U0086		       00 00	   P0ColorPtr word.w		; pointer to player0 color lookup table
     25 U0088		       00 00	   P1SpritePtr word.w		; pointer to enemy sprite lookup table
     26 U008a		       00 00	   P1ColorPtr word.w		; pointer to enemy color lookup table
     27 U008c		       00	   P0AnimOffset byte.b		; player0 sprite frame offset for "animation"
     28 U008d
     29 U008d							;;;;;;;;;;;;;;;;;;;;;;;;;;;;;;;;;;;;;;;;;;;;;;;;;;;;;;;;;;;;;;;;;;;;;;;
     30 U008d							;;  Define constants  
     31 U008d							;;;;;;;;;;;;;;;;;;;;;;;;;;;;;;;;;;;;;;;;;;;;;;;;;;;;;;;;;;;;;;;;;;;;;;;
     32 U008d		       00 09	   P0_HEIGHT  =	9	; player0 sprite height (# rows in lookup table)
     33 U008d		       00 09	   P1_HEIGHT  =	9	; player1 sprite height (# rows in lookup table)
     34 U008d
     35 U008d							;; below code can be possible as an alternative
     36 U008d							;; P0_HEIGHT = . - P0Frame0
     37 U008d
     38 U008d							;;;;;;;;;;;;;;;;;;;;;;;;;;;;;;;;;;;;;;;;;;;;;;;;;;;;;;;;;;;;;;;;;;;;;;;
     39 U008d							;;  Start our ROM code at memory address $F000  
     40 U008d							;;;;;;;;;;;;;;;;;;;;;;;;;;;;;;;;;;;;;;;;;;;;;;;;;;;;;;;;;;;;;;;;;;;;;;;
     41 U008d
     42  10000 ????				       seg	Code
     43  f000					      org	$F000
     44  f000
     45  f000				   Reset
      0  f000					      CLEAN_START		; call macro to reset memory and registers
      1  f000		       78		      sei
      2  f001		       d8		      cld
      3  f002
      4  f002		       a2 00		      ldx	#0
      5  f004		       8a		      txa
      6  f005		       a8		      tay
      7  f006		       ca	   .CLEAR_STACK dex
      8  f007		       9a		      txs
      9  f008		       48		      pha
     10  f009		       d0 fb		      bne	.CLEAR_STACK
     11  f00b
     47  f00b
     48  f00b							;;;;;;;;;;;;;;;;;;;;;;;;;;;;;;;;;;;;;;;;;;;;;;;;;;;;;;;;;;;;;;;;;;;;;;;
     49  f00b							;;  Initialize RAM variables and TIA registers 
     50  f00b							;;;;;;;;;;;;;;;;;;;;;;;;;;;;;;;;;;;;;;;;;;;;;;;;;;;;;;;;;;;;;;;;;;;;;;;
     51  f00b		       a9 0a		      lda	#10
     52  f00d		       85 81		      sta	JetYPos	; JetYPos = 10
     53  f00f		       a9 00		      lda	#0
     54  f011		       85 80		      sta	JetXPos	; JetXPos = 0
     55  f013		       a9 53		      lda	#83
     56  f015		       85 83		      sta	BomberYPos
     57  f017		       a9 36		      lda	#54
     58  f019		       85 82		      sta	BomberXPos
     59  f01b
     60  f01b							;;;;;;;;;;;;;;;;;;;;;;;;;;;;;;;;;;;;;;;;;;;;;;;;;;;;;;;;;;;;;;;;;;;;;;;
     61  f01b							;;  Initialize the pointers to the correct lookup table addresses 
     62  f01b							;;;;;;;;;;;;;;;;;;;;;;;;;;;;;;;;;;;;;;;;;;;;;;;;;;;;;;;;;;;;;;;;;;;;;;;
     63  f01b		       a9 a3		      lda	#<P0Frame1
     64  f01d		       85 84		      sta	P0SpritePtr	; lo-byte pointer for player sprite lookup table
     65  f01f		       a9 f1		      lda	#>P0Frame1
     66  f021		       85 85		      sta	P0SpritePtr+1	; hi-byte pointer for player sprite lookup table
     67  f023
     68  f023		       a9 c7		      lda	#<P0ColorFrame1
     69  f025		       85 86		      sta	P0ColorPtr
     70  f027		       a9 f1		      lda	#>P0ColorFrame1
     71  f029		       85 87		      sta	P0ColorPtr+1
     72  f02b
     73  f02b		       a9 b5		      lda	#<P1Frame0
     74  f02d		       85 88		      sta	P1SpritePtr	; lo-byte pointer for enemy sprite lookup table
     75  f02f		       a9 f1		      lda	#>P1Frame0
     76  f031		       85 89		      sta	P1SpritePtr+1	; hi-byte pointer for enemy sprite lookup table
     77  f033
     78  f033		       a9 d9		      lda	#<P1ColorFrame0
     79  f035		       85 8a		      sta	P1ColorPtr
     80  f037		       a9 f1		      lda	#>P1ColorFrame0
     81  f039		       85 8b		      sta	P1ColorPtr+1
     82  f03b
     83  f03b							;;;;;;;;;;;;;;;;;;;;;;;;;;;;;;;;;;;;;;;;;;;;;;;;;;;;;;;;;;;;;;;;;;;;;;;;;;;
     84  f03b							;;  Start the main display loop and frame rendering 
     85  f03b							;;;;;;;;;;;;;;;;;;;;;;;;;;;;;;;;;;;;;;;;;;;;;;;;;;;;;;;;;;;;;;;;;;;;;;;;;;;
     86  f03b				   StartFrame
     87  f03b
     88  f03b							;;;;;;;;;;;;;;;;;;;;;;;;;;;;;;;;;;;;;;;;;;;;;;;;;;;;;;;;;;;;;;;;;;;;;;;;;;;
     89  f03b							;;  Calculations and tasks performed in the pre-VBlank
     90  f03b							;;;;;;;;;;;;;;;;;;;;;;;;;;;;;;;;;;;;;;;;;;;;;;;;;;;;;;;;;;;;;;;;;;;;;;;;;;;
     91  f03b		       a5 80		      lda	JetXPos
     92  f03d		       a0 00		      ldy	#0
     93  f03f		       20 86 f1 	      jsr	SetObjectXPos	; set player0 horizontal position
     94  f042
     95  f042		       a5 82		      lda	BomberXPos
     96  f044		       a0 01		      ldy	#1
     97  f046		       20 86 f1 	      jsr	SetObjectXPos	; set player1 horizontal position
     98  f049
     99  f049		       85 02		      sta	WSYNC
    100  f04b		       85 2a		      sta	HMOVE	; apply the horizontal offsets previously set
    101  f04d
    102  f04d							;;;;;;;;;;;;;;;;;;;;;;;;;;;;;;;;;;;;;;;;;;;;;;;;;;;;;;;;;;;;;;;;;;;;;;;;;;;;
    103  f04d							;;  Display VSYNC and VBLANK 
    104  f04d							;;;;;;;;;;;;;;;;;;;;;;;;;;;;;;;;;;;;;;;;;;;;;;;;;;;;;;;;;;;;;;;;;;;;;;;;;;;;
    105  f04d		       a9 02		      lda	#2
    106  f04f		       85 01		      sta	VBLANK	; turn on VBLANK (0010)
    107  f051		       85 00		      sta	VSYNC	; turn on VSYNC
    108  f053					      REPEAT	3
    109  f053		       85 02		      sta	WSYNC	; display 3 recommended liens of VSYNC    
    108  f053					      REPEND
    109  f055		       85 02		      sta	WSYNC	; display 3 recommended liens of VSYNC    
    108  f055					      REPEND
    109  f057		       85 02		      sta	WSYNC	; display 3 recommended liens of VSYNC    
    110  f059					      REPEND
    111  f059		       a9 00		      lda	#0
    112  f05b		       85 00		      sta	VSYNC	; turn off VSYNC 
    113  f05d					      REPEAT	37
    114  f05d		       85 02		      sta	WSYNC	; display the 37 recommended lines of VBLANK
    113  f05d					      REPEND
    114  f05f		       85 02		      sta	WSYNC	; display the 37 recommended lines of VBLANK
    113  f05f					      REPEND
    114  f061		       85 02		      sta	WSYNC	; display the 37 recommended lines of VBLANK
    113  f061					      REPEND
    114  f063		       85 02		      sta	WSYNC	; display the 37 recommended lines of VBLANK
    113  f063					      REPEND
    114  f065		       85 02		      sta	WSYNC	; display the 37 recommended lines of VBLANK
    113  f065					      REPEND
    114  f067		       85 02		      sta	WSYNC	; display the 37 recommended lines of VBLANK
    113  f067					      REPEND
    114  f069		       85 02		      sta	WSYNC	; display the 37 recommended lines of VBLANK
    113  f069					      REPEND
    114  f06b		       85 02		      sta	WSYNC	; display the 37 recommended lines of VBLANK
    113  f06b					      REPEND
    114  f06d		       85 02		      sta	WSYNC	; display the 37 recommended lines of VBLANK
    113  f06d					      REPEND
    114  f06f		       85 02		      sta	WSYNC	; display the 37 recommended lines of VBLANK
    113  f06f					      REPEND
    114  f071		       85 02		      sta	WSYNC	; display the 37 recommended lines of VBLANK
    113  f071					      REPEND
    114  f073		       85 02		      sta	WSYNC	; display the 37 recommended lines of VBLANK
    113  f073					      REPEND
    114  f075		       85 02		      sta	WSYNC	; display the 37 recommended lines of VBLANK
    113  f075					      REPEND
    114  f077		       85 02		      sta	WSYNC	; display the 37 recommended lines of VBLANK
    113  f077					      REPEND
    114  f079		       85 02		      sta	WSYNC	; display the 37 recommended lines of VBLANK
    113  f079					      REPEND
    114  f07b		       85 02		      sta	WSYNC	; display the 37 recommended lines of VBLANK
    113  f07b					      REPEND
    114  f07d		       85 02		      sta	WSYNC	; display the 37 recommended lines of VBLANK
    113  f07d					      REPEND
    114  f07f		       85 02		      sta	WSYNC	; display the 37 recommended lines of VBLANK
    113  f07f					      REPEND
    114  f081		       85 02		      sta	WSYNC	; display the 37 recommended lines of VBLANK
    113  f081					      REPEND
    114  f083		       85 02		      sta	WSYNC	; display the 37 recommended lines of VBLANK
    113  f083					      REPEND
    114  f085		       85 02		      sta	WSYNC	; display the 37 recommended lines of VBLANK
    113  f085					      REPEND
    114  f087		       85 02		      sta	WSYNC	; display the 37 recommended lines of VBLANK
    113  f087					      REPEND
    114  f089		       85 02		      sta	WSYNC	; display the 37 recommended lines of VBLANK
    113  f089					      REPEND
    114  f08b		       85 02		      sta	WSYNC	; display the 37 recommended lines of VBLANK
    113  f08b					      REPEND
    114  f08d		       85 02		      sta	WSYNC	; display the 37 recommended lines of VBLANK
    113  f08d					      REPEND
    114  f08f		       85 02		      sta	WSYNC	; display the 37 recommended lines of VBLANK
    113  f08f					      REPEND
    114  f091		       85 02		      sta	WSYNC	; display the 37 recommended lines of VBLANK
    113  f091					      REPEND
    114  f093		       85 02		      sta	WSYNC	; display the 37 recommended lines of VBLANK
    113  f093					      REPEND
    114  f095		       85 02		      sta	WSYNC	; display the 37 recommended lines of VBLANK
    113  f095					      REPEND
    114  f097		       85 02		      sta	WSYNC	; display the 37 recommended lines of VBLANK
    113  f097					      REPEND
    114  f099		       85 02		      sta	WSYNC	; display the 37 recommended lines of VBLANK
    113  f099					      REPEND
    114  f09b		       85 02		      sta	WSYNC	; display the 37 recommended lines of VBLANK
    113  f09b					      REPEND
    114  f09d		       85 02		      sta	WSYNC	; display the 37 recommended lines of VBLANK
    113  f09d					      REPEND
    114  f09f		       85 02		      sta	WSYNC	; display the 37 recommended lines of VBLANK
    113  f09f					      REPEND
    114  f0a1		       85 02		      sta	WSYNC	; display the 37 recommended lines of VBLANK
    113  f0a1					      REPEND
    114  f0a3		       85 02		      sta	WSYNC	; display the 37 recommended lines of VBLANK
    113  f0a3					      REPEND
    114  f0a5		       85 02		      sta	WSYNC	; display the 37 recommended lines of VBLANK
    115  f0a7					      REPEND
    116  f0a7		       85 01		      sta	VBLANK	; turn off VBLANK			
    117  f0a9
    118  f0a9							;;;;;;;;;;;;;;;;;;;;;;;;;;;;;;;;;;;;;;;;;;;;;;;;;;;;;;;;;;;;;;;;;;;;;;;
    119  f0a9							;;  Display the 96 visible scanlines of our main game (2-line kernel)
    120  f0a9							;;;;;;;;;;;;;;;;;;;;;;;;;;;;;;;;;;;;;;;;;;;;;;;;;;;;;;;;;;;;;;;;;;;;;;;
    121  f0a9				   GameVisibleLine
    122  f0a9		       a9 84		      lda	#$84
    123  f0ab		       85 09		      sta	COLUBK	; set color background to blue
    124  f0ad
    125  f0ad		       a9 c2		      lda	#$C2
    126  f0af		       85 08		      sta	COLUPF	; set playfield/grass color to green
    127  f0b1
    128  f0b1		       a9 01		      lda	#%00000001
    129  f0b3		       85 0a		      sta	CTRLPF	; enable playfield reflection
    130  f0b5
    131  f0b5		       a9 f0		      lda	#$F0
    132  f0b7		       85 0d		      sta	PF0	; setting PF0 bit pattern
    133  f0b9
    134  f0b9		       a9 fc		      lda	#$FC
    135  f0bb		       85 0e		      sta	PF1	; setting PF1 bit paattern
    136  f0bd
    137  f0bd		       a9 00		      lda	#0
    138  f0bf		       85 0f		      sta	PF2	; setting PF2 bit paattern
    139  f0c1
    140  f0c1		       a2 60		      ldx	#96	; X counts the number of remaining scanlines
    141  f0c3				   .GameLineLoop
    142  f0c3				   .AreWeInsidePlayerSprite
    143  f0c3		       8a		      txa		; transfer X to A
    144  f0c4		       38		      sec		; make sure the carry flag is set before subtraction 
    145  f0c5		       e5 81		      sbc	JetYPos	; subtract sprite Y-coordinate
    146  f0c7		       c5 09		      cmp	P0_HEIGHT	; are we inside the sprite height bounds?
    147  f0c9		       90 02		      bcc	.DrawSpriteP0	; if result < SpriteHeight, call the draw routine
    148  f0cb		       a9 00		      lda	#0	; else, set lookup index to zero
    149  f0cd				   .DrawSpriteP0
    150  f0cd		       18		      clc		; clear carry flag before addition
    151  f0ce		       65 8c		      adc	P0AnimOffset	; jump to the correct sprite frame address in memory
    152  f0d0		       a8		      tay		; load Y so we can work with the pointer
    153  f0d1		       b1 84		      lda	(P0SpritePtr),Y	; load player0 bitmap data from lookup table
    154  f0d3		       85 02		      sta	WSYNC	; wait for scanline
    155  f0d5		       85 1b		      sta	GRP0	; set graphics for player0
    156  f0d7		       b1 86		      lda	(P0ColorPtr),Y	; load player color from lookup table
    157  f0d9		       85 06		      sta	COLUP0	; set graphics of player0
    158  f0db
    159  f0db				   .AreWeInsideBomberSprite
    160  f0db		       8a		      txa		; transfer X to A
    161  f0dc		       38		      sec		; make sure the carry flag is set before subtraction 
    162  f0dd		       e5 83		      sbc	BomberYPos	; subtract sprite Y-coordinate
    163  f0df		       c5 09		      cmp	P1_HEIGHT	; are we inside the sprite height bounds?
    164  f0e1		       90 02		      bcc	.DrawSpriteP1	; if result < SpriteHeight, call the draw routine
    165  f0e3		       a9 00		      lda	#0	; else, set lookup index to zero
    166  f0e5				   .DrawSpriteP1
    167  f0e5		       a8		      tay		; load Y so we can work with the pointer
    168  f0e6		       a9 05		      lda	#%00000101
    169  f0e8		       85 05		      sta	NUSIZ1
    170  f0ea		       b1 88		      lda	(P1SpritePtr),Y	; load player0 bitmap data from lookup table
    171  f0ec		       85 02		      sta	WSYNC	; wait for scanline
    172  f0ee		       85 1c		      sta	GRP1	; set graphics for player0
    173  f0f0		       b1 8a		      lda	(P1ColorPtr),Y	; load player color from lookup table
    174  f0f2		       85 07		      sta	COLUP1	; set graphics of player0
    175  f0f4
    176  f0f4		       ca		      dex		; X--
    177  f0f5		       d0 cc		      bne	.GameLineLoop	; repeat next main game scanline until finished
    178  f0f7
    179  f0f7		       a9 00		      lda	#0
    180  f0f9		       85 8c		      sta	P0AnimOffset	; reset player animation frame to zero each frame
    181  f0fb
    182  f0fb							;;;;;;;;;;;;;;;;;;;;;;;;;;;;;;;;;;;;;;;;;;;;;;;;;;;;;;;;;;;;;;;;;;;;;;;
    183  f0fb							;;  Display Overscan 
    184  f0fb							;;;;;;;;;;;;;;;;;;;;;;;;;;;;;;;;;;;;;;;;;;;;;;;;;;;;;;;;;;;;;;;;;;;;;;; 
    185  f0fb		       a9 02		      lda	#2
    186  f0fd		       85 01		      sta	VBLANK	; turn VBLANK on again
    187  f0ff					      REPEAT	30
    188  f0ff		       85 02		      sta	WSYNC	; display 30 recommended lines of VBLANK Overscan
    187  f0ff					      REPEND
    188  f101		       85 02		      sta	WSYNC	; display 30 recommended lines of VBLANK Overscan
    187  f101					      REPEND
    188  f103		       85 02		      sta	WSYNC	; display 30 recommended lines of VBLANK Overscan
    187  f103					      REPEND
    188  f105		       85 02		      sta	WSYNC	; display 30 recommended lines of VBLANK Overscan
    187  f105					      REPEND
    188  f107		       85 02		      sta	WSYNC	; display 30 recommended lines of VBLANK Overscan
    187  f107					      REPEND
    188  f109		       85 02		      sta	WSYNC	; display 30 recommended lines of VBLANK Overscan
    187  f109					      REPEND
    188  f10b		       85 02		      sta	WSYNC	; display 30 recommended lines of VBLANK Overscan
    187  f10b					      REPEND
    188  f10d		       85 02		      sta	WSYNC	; display 30 recommended lines of VBLANK Overscan
    187  f10d					      REPEND
    188  f10f		       85 02		      sta	WSYNC	; display 30 recommended lines of VBLANK Overscan
    187  f10f					      REPEND
    188  f111		       85 02		      sta	WSYNC	; display 30 recommended lines of VBLANK Overscan
    187  f111					      REPEND
    188  f113		       85 02		      sta	WSYNC	; display 30 recommended lines of VBLANK Overscan
    187  f113					      REPEND
    188  f115		       85 02		      sta	WSYNC	; display 30 recommended lines of VBLANK Overscan
    187  f115					      REPEND
    188  f117		       85 02		      sta	WSYNC	; display 30 recommended lines of VBLANK Overscan
    187  f117					      REPEND
    188  f119		       85 02		      sta	WSYNC	; display 30 recommended lines of VBLANK Overscan
    187  f119					      REPEND
    188  f11b		       85 02		      sta	WSYNC	; display 30 recommended lines of VBLANK Overscan
    187  f11b					      REPEND
    188  f11d		       85 02		      sta	WSYNC	; display 30 recommended lines of VBLANK Overscan
    187  f11d					      REPEND
    188  f11f		       85 02		      sta	WSYNC	; display 30 recommended lines of VBLANK Overscan
    187  f11f					      REPEND
    188  f121		       85 02		      sta	WSYNC	; display 30 recommended lines of VBLANK Overscan
    187  f121					      REPEND
    188  f123		       85 02		      sta	WSYNC	; display 30 recommended lines of VBLANK Overscan
    187  f123					      REPEND
    188  f125		       85 02		      sta	WSYNC	; display 30 recommended lines of VBLANK Overscan
    187  f125					      REPEND
    188  f127		       85 02		      sta	WSYNC	; display 30 recommended lines of VBLANK Overscan
    187  f127					      REPEND
    188  f129		       85 02		      sta	WSYNC	; display 30 recommended lines of VBLANK Overscan
    187  f129					      REPEND
    188  f12b		       85 02		      sta	WSYNC	; display 30 recommended lines of VBLANK Overscan
    187  f12b					      REPEND
    188  f12d		       85 02		      sta	WSYNC	; display 30 recommended lines of VBLANK Overscan
    187  f12d					      REPEND
    188  f12f		       85 02		      sta	WSYNC	; display 30 recommended lines of VBLANK Overscan
    187  f12f					      REPEND
    188  f131		       85 02		      sta	WSYNC	; display 30 recommended lines of VBLANK Overscan
    187  f131					      REPEND
    188  f133		       85 02		      sta	WSYNC	; display 30 recommended lines of VBLANK Overscan
    187  f133					      REPEND
    188  f135		       85 02		      sta	WSYNC	; display 30 recommended lines of VBLANK Overscan
    187  f135					      REPEND
    188  f137		       85 02		      sta	WSYNC	; display 30 recommended lines of VBLANK Overscan
    187  f137					      REPEND
    188  f139		       85 02		      sta	WSYNC	; display 30 recommended lines of VBLANK Overscan
    189  f13b					      REPEND
    190  f13b		       a9 00		      lda	#0
    191  f13d		       85 01		      sta	VBLANK	; turn off VBLANK
    192  f13f
    193  f13f							;;;;;;;;;;;;;;;;;;;;;;;;;;;;;;;;;;;;;;;;;;;;;;;;;;;;;;;;;;;;;;;;;;;;;;;;;;;;;;;;;;;;
    194  f13f							;;  Process joystick input for player0
    195  f13f							;;;;;;;;;;;;;;;;;;;;;;;;;;;;;;;;;;;;;;;;;;;;;;;;;;;;;;;;;;;;;;;;;;;;;;;;;;;;;;;;;;;;
    196  f13f				   CheckP0Up
    197  f13f		       a9 10		      lda	#%00010000	; player0 joystick up
    198  f141		       2c 80 02 	      bit	SWCHA
    199  f144		       d0 06		      bne	CheckP0Down	; if bit pattern doesnt match, bypass Up block
    200  f146		       e6 81		      inc	JetYPos
    201  f148		       a9 00		      lda	#0
    202  f14a		       85 8c		      sta	P0AnimOffset
    203  f14c
    204  f14c				   CheckP0Down
    205  f14c		       a9 20		      lda	#%00100000	; player0 joystick down
    206  f14e		       2c 80 02 	      bit	SWCHA
    207  f151		       d0 06		      bne	CheckP0Left	; if bit pattern doesnt match, bypass Down block
    208  f153		       c6 81		      dec	JetYPos
    209  f155		       a9 00		      lda	#0
    210  f157		       85 8c		      sta	P0AnimOffset
    211  f159
    212  f159				   CheckP0Left
    213  f159		       a9 40		      lda	#%01000000	; player0 joystick left
    214  f15b		       2c 80 02 	      bit	SWCHA
    215  f15e		       d0 06		      bne	CheckP0Right	; if bit pattern doesnt match, bypass Left block
    216  f160		       c6 80		      dec	JetXPos
    217  f162		       a5 09		      lda	P0_HEIGHT	; 9
    218  f164		       85 8c		      sta	P0AnimOffset	; set animation offset 
    219  f166
    220  f166				   CheckP0Right
    221  f166		       a9 80		      lda	#%10000000	; player0 joystick right
    222  f168		       2c 80 02 	      bit	SWCHA
    223  f16b		       d0 06		      bne	EndInputCheck	; if bit pattern doesnt match, bypass Right block
    224  f16d		       e6 80		      inc	JetXPos
    225  f16f		       a5 09		      lda	P0_HEIGHT	; 9
    226  f171		       85 8c		      sta	P0AnimOffset	; set animation offset 
    227  f173
    228  f173				   EndInputCheck		; fallback when no input was performed
    229  f173
    230  f173							;;;;;;;;;;;;;;;;;;;;;;;;;;;;;;;;;;;;;;;;;;;;;;;;;;;;;;;;;;;;;;;;;;;;;;;;;;;;;;;;;;;;
    231  f173							;;  Calculations to update position for next frame
    232  f173							;;;;;;;;;;;;;;;;;;;;;;;;;;;;;;;;;;;;;;;;;;;;;;;;;;;;;;;;;;;;;;;;;;;;;;;;;;;;;;;;;;;;
    233  f173				   UpdateBomberPosition
    234  f173		       a5 83		      lda	BomberYPos
    235  f175		       18		      clc
    236  f176		       c9 00		      cmp	#0	; compare bomber y-position with 0
    237  f178		       30 05		      bmi	.ResetBomberPosition	; if it is < 0, then reset y-position to the top
    238  f17a		       c6 83		      dec	BomberYPos	; else, decrement enemy y-position for next frame 
    239  f17c		       4c 83 f1 	      jmp	EndPositionUpdate
    240  f17f
    241  f17f				   .ResetBomberPosition
    242  f17f		       a9 60		      lda	#96
    243  f181		       85 83		      sta	BomberYPos
    244  f183							; TODO: set bomber X position to random number
    245  f183
    246  f183				   EndPositionUpdate		; fallback for the position update code
    247  f183
    248  f183
    249  f183							;;;;;;;;;;;;;;;;;;;;;;;;;;;;;;;;;;;;;;;;;;;;;;;;;;;;;;;;;;;;;;;;;;;;;;;;;;;;;;;;;;;;
    250  f183							;;  Loop back to start a brand new frame 
    251  f183							;;;;;;;;;;;;;;;;;;;;;;;;;;;;;;;;;;;;;;;;;;;;;;;;;;;;;;;;;;;;;;;;;;;;;;;;;;;;;;;;;;;;
    252  f183		       4c 3b f0 	      jmp	StartFrame	; continue to display the next frame
    253  f186
    254  f186							;;;;;;;;;;;;;;;;;;;;;;;;;;;;;;;;;;;;;;;;;;;;;;;;;;;;;;;;;;;;;;;;;;;;;;;;;;;;;;;;;;;;
    255  f186							;;  Subroutine to handle object horizontal position with fine offset
    256  f186							;;;;;;;;;;;;;;;;;;;;;;;;;;;;;;;;;;;;;;;;;;;;;;;;;;;;;;;;;;;;;;;;;;;;;;;;;;;;;;;;;;;;
    257  f186							;;  A is the target x-coordinate position in pixels of our object
    258  f186							;;  Y is the object type (0:player0, 1:player1, 2:missile0, 3:missile1, 4:ball)
    259  f186							;;;;;;;;;;;;;;;;;;;;;;;;;;;;;;;;;;;;;;;;;;;;;;;;;;;;;;;;;;;;;;;;;;;;;;;;;;;;;;;;;;;;
    260  f186				   SetObjectXPos subroutine
    261  f186		       85 02		      sta	WSYNC	; start a fresh new scanline
    262  f188		       38		      sec		; make sure carry-flag is set before subtraction
    263  f189				   .Div15Loop
    264  f189		       e9 0f		      sbc	#15	; subtract 15 from accumulator
    265  f18b		       b0 fc		      bcs	.Div15Loop	; loop until carry-flag is clear
    266  f18d		       49 07		      eor	#7	; handle offset range from -8 to 7
    267  f18f		       0a		      asl
    268  f190		       0a		      asl
    269  f191		       0a		      asl
    270  f192		       0a		      asl
    271  f193		       99 20 00 	      sta	HMP0,Y	; four shift lefts to get only the top 4 bits 
    272  f196		       99 10 00 	      sta	RESP0,Y	; store the fine offset to the correct HMxx
    273  f199		       60		      rts		; fix object position in 15-step increment
    274  f19a
    275  f19a							;;;;;;;;;;;;;;;;;;;;;;;;;;;;;;;;;;;;;;;;;;;;;;;;;;;;;;;;;;;;;;;;;;;;;;;
    276  f19a							;;  Declare ROM lookup tables
    277  f19a							;;;;;;;;;;;;;;;;;;;;;;;;;;;;;;;;;;;;;;;;;;;;;;;;;;;;;;;;;;;;;;;;;;;;;;;
    278  f19a				   P0Frame0
    279  f19a		       00		      .byte.b	#%00000000
    280  f19b		       10		      .byte.b	#%00010000	;$0E
    281  f19c		       38		      .byte.b	#%00111000	;$06
    282  f19d		       10		      .byte.b	#%00010000	;$0E
    283  f19e		       10		      .byte.b	#%00010000	;$0E
    284  f19f		       38		      .byte.b	#%00111000	;$0E
    285  f1a0		       7c		      .byte.b	#%01111100	;$0E
    286  f1a1		       10		      .byte.b	#%00010000	;$9A
    287  f1a2		       10		      .byte.b	#%00010000	;--
    288  f1a3
    289  f1a3				   P0Frame1
    290  f1a3		       00		      .byte.b	#%00000000
    291  f1a4		       08		      .byte.b	#%00001000	;$0E
    292  f1a5		       1c		      .byte.b	#%00011100	;$06
    293  f1a6		       08		      .byte.b	#%00001000	;$0E
    294  f1a7		       08		      .byte.b	#%00001000	;$0E
    295  f1a8		       3e		      .byte.b	#%00111110	;$0E
    296  f1a9		       7f		      .byte.b	#%01111111	;$0E
    297  f1aa		       08		      .byte.b	#%00001000	;$9A
    298  f1ab		       08		      .byte.b	#%00001000	;--
    299  f1ac
    300  f1ac				   P0Frame2
    301  f1ac		       00		      .byte.b	#%00000000
    302  f1ad		       04		      .byte.b	#%00000100	;$0E
    303  f1ae		       0e		      .byte.b	#%00001110	;$06
    304  f1af		       04		      .byte.b	#%00000100	;$0E
    305  f1b0		       04		      .byte.b	#%00000100	;$0E
    306  f1b1		       0e		      .byte.b	#%00001110	;$0E
    307  f1b2		       1f		      .byte.b	#%00011111	;$0E
    308  f1b3		       04		      .byte.b	#%00000100	;$9A
    309  f1b4		       04		      .byte.b	#%00000100	;--
    310  f1b5
    311  f1b5				   P1Frame0
    312  f1b5		       00		      .byte.b	#%00000000	;$00
    313  f1b6		       08		      .byte.b	#%00001000	;$40
    314  f1b7		       2a		      .byte.b	#%00101010	;$AE
    315  f1b8		       7f		      .byte.b	#%01111111	;$44
    316  f1b9		       1c		      .byte.b	#%00011100	;$44
    317  f1ba		       08		      .byte.b	#%00001000	;$44
    318  f1bb		       08		      .byte.b	#%00001000	;$44
    319  f1bc		       1c		      .byte.b	#%00011100	;$40
    320  f1bd		       08		      .byte.b	#%00001000	;$40
    321  f1be
    322  f1be
    323  f1be							;---Color Data from PlayerPal 2600---
    324  f1be
    325  f1be				   P0ColorFrame0
    326  f1be		       00		      .byte.b	#$00
    327  f1bf		       0e		      .byte.b	#$0E	;
    328  f1c0		       06		      .byte.b	#$06	;
    329  f1c1		       0e		      .byte.b	#$0E	;
    330  f1c2		       0e		      .byte.b	#$0E	;
    331  f1c3		       0e		      .byte.b	#$0E	;
    332  f1c4		       0e		      .byte.b	#$0E	;
    333  f1c5		       9a		      .byte.b	#$9A	;
    334  f1c6		       0e		      .byte.b	#$0E	;
    335  f1c7
    336  f1c7				   P0ColorFrame1
    337  f1c7		       00		      .byte.b	#$00
    338  f1c8		       0e		      .byte.b	#$0E	;
    339  f1c9		       06		      .byte.b	#$06	;
    340  f1ca		       0e		      .byte.b	#$0E	;
    341  f1cb		       0e		      .byte.b	#$0E	;
    342  f1cc		       0e		      .byte.b	#$0E	;
    343  f1cd		       0e		      .byte.b	#$0E	;
    344  f1ce		       9a		      .byte.b	#$9A	;
    345  f1cf		       0e		      .byte.b	#$0E	;
    346  f1d0
    347  f1d0				   P0ColorFrame2
    348  f1d0		       00		      .byte.b	#$00
    349  f1d1		       0e		      .byte.b	#$0E	;
    350  f1d2		       06		      .byte.b	#$06	;
    351  f1d3		       0e		      .byte.b	#$0E	;
    352  f1d4		       0e		      .byte.b	#$0E	;
    353  f1d5		       0e		      .byte.b	#$0E	;
    354  f1d6		       0e		      .byte.b	#$0E	;
    355  f1d7		       9a		      .byte.b	#$9A	;
    356  f1d8		       0e		      .byte.b	#$0E	;
    357  f1d9
    358  f1d9				   P1ColorFrame0
    359  f1d9		       00		      .byte.b	#$00
    360  f1da		       40		      .byte.b	#$40
    361  f1db		       ae		      .byte.b	#$AE	;
    362  f1dc		       44		      .byte.b	#$44	;
    363  f1dd		       44		      .byte.b	#$44	;
    364  f1de		       44		      .byte.b	#$44	;
    365  f1df		       44		      .byte.b	#$44	;
    366  f1e0		       40		      .byte.b	#$40	;
    367  f1e1		       40		      .byte.b	#$40	;
    368  f1e2		       0e		      .byte.b	#$0E
    369  f1e3
    370  f1e3							;;;;;;;;;;;;;;;;;;;;;;;;;;;;;;;;;;;;;;;;;;;;;;;;;;;;;;;;;;;;;;;;;;;;;;;
    371  f1e3							;;  Complete ROM size with exactly 4KB
    372  f1e3							;;;;;;;;;;;;;;;;;;;;;;;;;;;;;;;;;;;;;;;;;;;;;;;;;;;;;;;;;;;;;;;;;;;;;;; 
    373  fffc					      org	$FFFC	; move to position $FFFC
    374  fffc		       00 f0		      word.w	Reset	; write 2 bytes with the program reset address
    375  fffe		       00 f0		      word.w	Reset	; write 2 bytes with the interruption vector
